target datalayout = "e-m:e-p270:32:32-p271:32:32-p272:64:64-i64:64-i128:128-f80:128-n8:16:32:64-S128"
target triple = "x86_64-pc-linux-gnu"

%struct.lowpan_context_data = type { i32, i8, %struct.e_in6_addr }
%struct.e_in6_addr = type { [16 x i8] }
%struct.lowpan_context_key = type { i16, i8 }

@lowpan_context_table = internal global ptr null, align 8

; Function Attrs: alwaysinline nounwind
define internal ptr @memcpy.inline(ptr noalias %0, ptr noalias %1, i64 %2) #6 {
  %4 = alloca ptr, align 8
  %5 = alloca ptr, align 8
  %6 = alloca i64, align 8
  store ptr %0, ptr %4, align 8
  store ptr %1, ptr %5, align 8
  store i64 %2, ptr %6, align 8
  %7 = load ptr, ptr %4, align 8
  %8 = load ptr, ptr %5, align 8
  %9 = load i64, ptr %6, align 8
  %10 = load ptr, ptr %4, align 8
  %11 = call i64 @llvm.objectsize.i64.p0(ptr %10, i1 false, i1 true, i1 true)
  %12 = call ptr @__memcpy_chk(ptr noundef %7, ptr noundef %8, i64 noundef %9, i64 noundef %11) #15
  ret ptr %12
}

; Function Attrs: nounwind null_pointer_is_valid sspstrong uwtable
define internal void @lowpan_pfxcpy(ptr noundef %0, ptr noundef %1, i64 noundef %2) #7 {
  %4 = alloca ptr, align 8
  %5 = alloca ptr, align 8
  %6 = alloca i64, align 8
  %7 = alloca i8, align 1
  %8 = alloca i8, align 1
  store ptr %0, ptr %4, align 8
  store ptr %1, ptr %5, align 8
  store i64 %2, ptr %6, align 8
  %9 = load ptr, ptr %4, align 8
  %10 = load ptr, ptr %5, align 8
  %11 = load i64, ptr %6, align 8
  %12 = lshr i64 %11, 3
  %13 = call ptr @memcpy.inline(ptr noundef %9, ptr noundef %10, i64 noundef %12) #15
  %14 = load i64, ptr %6, align 8
  %15 = and i64 %14, 7
  %16 = icmp ne i64 %15, 0
  br i1 %16, label %17, label %54

17:                                               ; preds = %3
  call void @llvm.lifetime.start.p0(i64 1, ptr %7) #15
  %18 = load i64, ptr %6, align 8
  %19 = and i64 %18, 7
  %20 = trunc i64 %19 to i32
  %21 = ashr i32 65280, %20
  %22 = trunc i32 %21 to i8
  store i8 %22, ptr %7, align 1
  call void @llvm.lifetime.start.p0(i64 1, ptr %8) #15
  %23 = load ptr, ptr %5, align 8
  %24 = load i64, ptr %6, align 8
  %25 = lshr i64 %24, 3
  %26 = getelementptr i8, ptr %23, i64 %25
  %27 = load i8, ptr %26, align 1
  %28 = zext i8 %27 to i32
  %29 = load i8, ptr %7, align 1
  %30 = zext i8 %29 to i32
  %31 = and i32 %28, %30
  %32 = trunc i32 %31 to i8
  store i8 %32, ptr %8, align 1
  %33 = load i8, ptr %7, align 1
  %34 = zext i8 %33 to i32
  %35 = xor i32 %34, -1
  %36 = load ptr, ptr %4, align 8
  %37 = load i64, ptr %6, align 8
  %38 = lshr i64 %37, 3
  %39 = getelementptr i8, ptr %36, i64 %38
  %40 = load i8, ptr %39, align 1
  %41 = zext i8 %40 to i32
  %42 = and i32 %41, %35
  %43 = trunc i32 %42 to i8
  store i8 %43, ptr %39, align 1
  %44 = load i8, ptr %8, align 1
  %45 = zext i8 %44 to i32
  %46 = load ptr, ptr %4, align 8
  %47 = load i64, ptr %6, align 8
  %48 = lshr i64 %47, 3
  %49 = getelementptr i8, ptr %46, i64 %48
  %50 = load i8, ptr %49, align 1
  %51 = zext i8 %50 to i32
  %52 = or i32 %51, %45
  %53 = trunc i32 %52 to i8
  store i8 %53, ptr %49, align 1
  call void @llvm.lifetime.end.p0(i64 1, ptr %8) #15
  call void @llvm.lifetime.end.p0(i64 1, ptr %7) #15
  br label %54

54:                                               ; preds = %17, %3
  ret void
}

; Function Attrs: alwaysinline nounwind
define internal ptr @memset.inline(ptr %0, i32 %1, i64 %2) #6 {
  %4 = alloca ptr, align 8
  %5 = alloca i32, align 4
  %6 = alloca i64, align 8
  store ptr %0, ptr %4, align 8
  store i32 %1, ptr %5, align 4
  store i64 %2, ptr %6, align 8
  %7 = load ptr, ptr %4, align 8
  %8 = load i32, ptr %5, align 4
  %9 = load i64, ptr %6, align 8
  %10 = load ptr, ptr %4, align 8
  %11 = call i64 @llvm.objectsize.i64.p0(ptr %10, i1 false, i1 true, i1 true)
  %12 = call ptr @__memset_chk(ptr noundef %7, i32 noundef %8, i64 noundef %9, i64 noundef %11) #15
  ret ptr %12
}

; Function Attrs: null_pointer_is_valid sspstrong uwtable
define hidden void @lowpan_context_insert(i8 noundef zeroext %0, i16 noundef zeroext %1, i8 noundef zeroext %2, ptr noundef %3, i32 noundef %4) #0 {
  %6 = alloca i8, align 1
  %7 = alloca i16, align 2
  %8 = alloca i8, align 1
  %9 = alloca ptr, align 8
  %10 = alloca i32, align 4
  %11 = alloca %struct.lowpan_context_key, align 2
  %12 = alloca ptr, align 8
  %13 = alloca ptr, align 8
  %14 = alloca ptr, align 8
  %15 = alloca i32, align 4
  store i8 %0, ptr %6, align 1
  store i16 %1, ptr %7, align 2
  store i8 %2, ptr %8, align 1
  store ptr %3, ptr %9, align 8
  store i32 %4, ptr %10, align 4
  call void @llvm.lifetime.start.p0(i64 4, ptr %11) #15
  call void @llvm.lifetime.start.p0(i64 8, ptr %12) #15
  call void @llvm.lifetime.start.p0(i64 8, ptr %13) #15
  call void @llvm.lifetime.start.p0(i64 8, ptr %14) #15
  %16 = load i8, ptr %8, align 1
  %17 = zext i8 %16 to i32
  %18 = icmp sgt i32 %17, 128
  br i1 %18, label %19, label %20

19:                                               ; preds = %5
  store i32 1, ptr %15, align 4
  br label %79

20:                                               ; preds = %5
  %21 = load ptr, ptr %9, align 8
  %22 = icmp ne ptr %21, null
  br i1 %22, label %24, label %23

23:                                               ; preds = %20
  store i32 1, ptr %15, align 4
  br label %79

24:                                               ; preds = %20
  %25 = load ptr, ptr @lowpan_context_table, align 8
  %26 = icmp ne ptr %25, null
  br i1 %26, label %28, label %27

27:                                               ; preds = %24
  store i32 1, ptr %15, align 4
  br label %79

28:                                               ; preds = %24
  %29 = load i16, ptr %7, align 2
  %30 = getelementptr inbounds nuw %struct.lowpan_context_key, ptr %11, i32 0, i32 0
  store i16 %29, ptr %30, align 2
  %31 = load i8, ptr %6, align 1
  %32 = getelementptr inbounds nuw %struct.lowpan_context_key, ptr %11, i32 0, i32 1
  store i8 %31, ptr %32, align 2
  %33 = load ptr, ptr @lowpan_context_table, align 8
  %34 = call i32 @g_hash_table_lookup_extended(ptr noundef %33, ptr noundef %11, ptr noundef null, ptr noundef %14)
  %35 = icmp ne i32 %34, 0
  br i1 %35, label %36, label %58

36:                                               ; preds = %28
  %37 = load ptr, ptr %14, align 8
  store ptr %37, ptr %12, align 8
  %38 = load ptr, ptr %12, align 8
  %39 = getelementptr inbounds nuw %struct.lowpan_context_data, ptr %38, i32 0, i32 1
  %40 = load i8, ptr %39, align 4
  %41 = zext i8 %40 to i32
  %42 = load i8, ptr %8, align 1
  %43 = zext i8 %42 to i32
  %44 = icmp eq i32 %41, %43
  br i1 %44, label %45, label %57

45:                                               ; preds = %36
  %46 = load ptr, ptr %12, align 8
  %47 = getelementptr inbounds nuw %struct.lowpan_context_data, ptr %46, i32 0, i32 2
  %48 = load ptr, ptr %9, align 8
  %49 = load i8, ptr %8, align 1
  %50 = zext i8 %49 to i32
  %51 = add i32 %50, 7
  %52 = sdiv i32 %51, 8
  %53 = sext i32 %52 to i64
  %54 = call i32 @memcmp(ptr noundef %47, ptr noundef %48, i64 noundef %53) #16
  %55 = icmp eq i32 %54, 0
  br i1 %55, label %56, label %57

56:                                               ; preds = %45
  store i32 1, ptr %15, align 4
  br label %79

57:                                               ; preds = %45, %36
  br label %58

58:                                               ; preds = %57, %28
  %59 = call ptr @wmem_memdup(ptr noundef null, ptr noundef %11, i64 noundef 4) #17
  store ptr %59, ptr %13, align 8
  %60 = call noalias ptr @wmem_alloc(ptr noundef null, i64 noundef 24) #18
  store ptr %60, ptr %12, align 8
  %61 = load i32, ptr %10, align 4
  %62 = load ptr, ptr %12, align 8
  %63 = getelementptr inbounds nuw %struct.lowpan_context_data, ptr %62, i32 0, i32 0
  store i32 %61, ptr %63, align 4
  %64 = load i8, ptr %8, align 1
  %65 = load ptr, ptr %12, align 8
  %66 = getelementptr inbounds nuw %struct.lowpan_context_data, ptr %65, i32 0, i32 1
  store i8 %64, ptr %66, align 4
  %67 = load ptr, ptr %12, align 8
  %68 = getelementptr inbounds nuw %struct.lowpan_context_data, ptr %67, i32 0, i32 2
  %69 = call ptr @memset.inline(ptr noundef %68, i32 noundef 0, i64 noundef 16) #15
  %70 = load ptr, ptr %12, align 8
  %71 = getelementptr inbounds nuw %struct.lowpan_context_data, ptr %70, i32 0, i32 2
  %72 = load ptr, ptr %9, align 8
  %73 = load i8, ptr %8, align 1
  %74 = zext i8 %73 to i64
  call void @lowpan_pfxcpy(ptr noundef %71, ptr noundef %72, i64 noundef %74)
  %75 = load ptr, ptr @lowpan_context_table, align 8
  %76 = load ptr, ptr %13, align 8
  %77 = load ptr, ptr %12, align 8
  %78 = call i32 @g_hash_table_insert(ptr noundef %75, ptr noundef %76, ptr noundef %77)
  store i32 0, ptr %15, align 4
  br label %79

79:                                               ; preds = %58, %56, %27, %23, %19
  call void @llvm.lifetime.end.p0(i64 8, ptr %14) #15
  call void @llvm.lifetime.end.p0(i64 8, ptr %13) #15
  call void @llvm.lifetime.end.p0(i64 8, ptr %12) #15
  call void @llvm.lifetime.end.p0(i64 4, ptr %11) #15
  %80 = load i32, ptr %15, align 4
  switch i32 %80, label %82 [
    i32 0, label %81
    i32 1, label %81
  ]

81:                                               ; preds = %79, %79
  ret void

82:                                               ; preds = %79
  unreachable
}