; Function Attrs: null_pointer_is_valid sspstrong uwtable
define hidden void @lowpan_context_insert(i8 noundef zeroext %0, i16 noundef zeroext %1, i8 noundef zeroext %2, ptr noundef readonly captures(address_is_null) %3, i32 noundef %4) local_unnamed_addr #0 {
  %6 = alloca %struct.lowpan_context_key, align 2
  %7 = alloca ptr, align 8
  call void @llvm.lifetime.start.p0(i64 4, ptr nonnull %6) #13
  call void @llvm.lifetime.start.p0(i64 8, ptr nonnull %7) #13
  %8 = zext i8 %2 to i64
  %9 = icmp ugt i8 %2, -128
  %.not = icmp eq ptr %3, null
  %or.cond = or i1 %9, %.not
  %10 = load ptr, ptr @lowpan_context_table, align 8
  %.not19 = icmp eq ptr %10, null
  %or.cond21 = select i1 %or.cond, i1 true, i1 %.not19
  br i1 %or.cond21, label %47, label %11

11:                                               ; preds = %5
  store i16 %1, ptr %6, align 2
  %12 = getelementptr inbounds nuw i8, ptr %6, i64 2
  store i8 %0, ptr %12, align 2
  %13 = call i32 @g_hash_table_lookup_extended(ptr noundef nonnull %10, ptr noundef nonnull %6, ptr noundef null, ptr noundef nonnull %7)
  %.not20 = icmp eq i32 %13, 0
  br i1 %.not20, label %24, label %14

14:                                               ; preds = %11
  %15 = load ptr, ptr %7, align 8
  %16 = getelementptr inbounds nuw i8, ptr %15, i64 4
  %17 = load i8, ptr %16, align 4
  %18 = icmp eq i8 %17, %2
  br i1 %18, label %19, label %24

19:                                               ; preds = %14
  %20 = getelementptr inbounds nuw i8, ptr %15, i64 5
  %21 = add nuw nsw i64 %8, 7
  %22 = lshr i64 %21, 3
  %bcmp = call i32 @bcmp(ptr nonnull %20, ptr nonnull %3, i64 %22)
  %23 = icmp eq i32 %bcmp, 0
  br i1 %23, label %47, label %24

24:                                               ; preds = %14, %19, %11
  %25 = call dereferenceable_or_null(4) ptr @wmem_memdup(ptr noundef null, ptr noundef nonnull %6, i64 noundef 4) #14
  %26 = call noalias dereferenceable_or_null(24) ptr @wmem_alloc(ptr noundef null, i64 noundef 24) #15
  store i32 %4, ptr %26, align 4
  %27 = getelementptr inbounds nuw i8, ptr %26, i64 4
  store i8 %2, ptr %27, align 4
  %28 = getelementptr inbounds nuw i8, ptr %26, i64 5
  call void @llvm.memset.p0.i64(ptr noundef nonnull align 1 dereferenceable(16) %28, i8 noundef 0, i64 noundef 16, i1 noundef false) #13
  %29 = lshr i64 %8, 3
  %30 = call ptr @__memcpy_chk(ptr noundef nonnull %28, ptr noundef nonnull readonly %3, i64 noundef range(i64 0, 4294967296) %29, i64 noundef 19) #13, !alias.scope !6
  %31 = and i64 %8, 7
  %.not.i = icmp eq i64 %31, 0
  br i1 %.not.i, label %lowpan_pfxcpy.exit, label %32

32:                                               ; preds = %24
  %33 = trunc nuw nsw i64 %31 to i16
  %34 = lshr exact i16 -256, %33
  %35 = getelementptr i8, ptr %3, i64 %29
  %36 = load i8, ptr %35, align 1
  %37 = trunc i16 %34 to i8
  %38 = and i8 %36, %37
  %39 = and i8 %37, 126
  %40 = xor i8 %39, 127
  %41 = getelementptr i8, ptr %28, i64 %29
  %42 = load i8, ptr %41, align 1
  %43 = and i8 %42, %40
  %44 = or i8 %43, %38
  store i8 %44, ptr %41, align 1
  br label %lowpan_pfxcpy.exit

lowpan_pfxcpy.exit:                               ; preds = %24, %32
  %45 = load ptr, ptr @lowpan_context_table, align 8
  %46 = call i32 @g_hash_table_insert(ptr noundef %45, ptr noundef %25, ptr noundef %26)
  br label %47

47:                                               ; preds = %19, %5, %lowpan_pfxcpy.exit
  call void @llvm.lifetime.end.p0(i64 8, ptr nonnull %7) #13
  call void @llvm.lifetime.end.p0(i64 4, ptr nonnull %6) #13
  ret void
}